(lp0
(dp1
S'eventType'
p2
S'CreateUser'
p3
sS'userID'
p4
I0
sS'repoID'
p5
NsS'subeventType'
p6
S'None'
p7
sS'time'
p8
F1516661319.546652
sa(dp9
g2
S'CreateEvent'
p10
sg4
I0
sg5
I0
sg6
S'Repository'
p11
sg8
F1516661319.547466
sa(dp12
g2
S'IssueCommentEvent'
p13
sg4
I0
sg5
I0
sg6
S'created'
p14
sg8
F1516661319.547868
sa(dp15
g2
g13
sg4
I0
sg5
I0
sg6
S'deleted'
p16
sg8
F1516661319.548264
sa.